target datalayout = "e-m:e-p270:32:32-p271:32:32-p272:64:64-i64:64-i128:128-f80:128-n8:16:32:64-S128"
target triple = "x86_64-pc-linux-gnu"

%struct.JSValue = type { %union.JSValueUnion, i64 }
%union.JSValueUnion = type { double }
%struct.dirent = type { i64, i64, i16, i8, [256 x i8] }

; Function Attrs: nounwind uwtable
define internal { i64, i64 } @make_obj_error(ptr noundef %0, i64 %1, i64 %2, i32 noundef %3) #0 {
  %5 = alloca %struct.JSValue, align 8
  %6 = alloca ptr, align 8
  %7 = alloca i32, align 4
  %8 = alloca %struct.JSValue, align 8
  %9 = alloca %struct.JSValue, align 8
  %10 = alloca ptr, align 8
  %11 = alloca i32, align 4
  %12 = alloca %struct.JSValue, align 8
  %13 = alloca %struct.JSValue, align 8
  %14 = alloca %struct.JSValue, align 8
  %15 = getelementptr inbounds { i64, i64 }, ptr %9, i32 0, i32 0
  store i64 %1, ptr %15, align 8
  %16 = getelementptr inbounds { i64, i64 }, ptr %9, i32 0, i32 1
  store i64 %2, ptr %16, align 8
  store ptr %0, ptr %10, align 8
  store i32 %3, ptr %11, align 4
  %17 = getelementptr inbounds { i64, i64 }, ptr %9, i32 0, i32 0
  %18 = load i64, ptr %17, align 8
  %19 = getelementptr inbounds { i64, i64 }, ptr %9, i32 0, i32 1
  %20 = load i64, ptr %19, align 8
  %21 = call i32 @JS_IsException(i64 %18, i64 %20)
  %22 = icmp ne i32 %21, 0
  br i1 %22, label %23, label %24

23:                                               ; preds = %4
  call void @llvm.memcpy.p0.p0.i64(ptr align 8 %8, ptr align 8 %9, i64 16, i1 false)
  br label %70

24:                                               ; preds = %4
  %25 = load ptr, ptr %10, align 8
  %26 = call { i64, i64 } @JS_NewArray(ptr noundef %25)
  %27 = getelementptr inbounds { i64, i64 }, ptr %13, i32 0, i32 0
  %28 = extractvalue { i64, i64 } %26, 0
  store i64 %28, ptr %27, align 8
  %29 = getelementptr inbounds { i64, i64 }, ptr %13, i32 0, i32 1
  %30 = extractvalue { i64, i64 } %26, 1
  store i64 %30, ptr %29, align 8
  call void @llvm.memcpy.p0.p0.i64(ptr align 8 %12, ptr align 8 %13, i64 16, i1 false)
  %31 = getelementptr inbounds { i64, i64 }, ptr %12, i32 0, i32 0
  %32 = load i64, ptr %31, align 8
  %33 = getelementptr inbounds { i64, i64 }, ptr %12, i32 0, i32 1
  %34 = load i64, ptr %33, align 8
  %35 = call i32 @JS_IsException(i64 %32, i64 %34)
  %36 = icmp ne i32 %35, 0
  br i1 %36, label %37, label %40

37:                                               ; preds = %24
  %38 = getelementptr inbounds %struct.JSValue, ptr %8, i32 0, i32 0
  store i32 0, ptr %38, align 8
  %39 = getelementptr inbounds %struct.JSValue, ptr %8, i32 0, i32 1
  store i64 6, ptr %39, align 8
  br label %70

40:                                               ; preds = %24
  %41 = load ptr, ptr %10, align 8
  %42 = getelementptr inbounds { i64, i64 }, ptr %12, i32 0, i32 0
  %43 = load i64, ptr %42, align 8
  %44 = getelementptr inbounds { i64, i64 }, ptr %12, i32 0, i32 1
  %45 = load i64, ptr %44, align 8
  %46 = getelementptr inbounds { i64, i64 }, ptr %9, i32 0, i32 0
  %47 = load i64, ptr %46, align 8
  %48 = getelementptr inbounds { i64, i64 }, ptr %9, i32 0, i32 1
  %49 = load i64, ptr %48, align 8
  %50 = call i32 @JS_DefinePropertyValueUint32(ptr noundef %41, i64 %43, i64 %45, i32 noundef 0, i64 %47, i64 %49, i32 noundef 7)
  %51 = load ptr, ptr %10, align 8
  %52 = load ptr, ptr %10, align 8
  %53 = load i32, ptr %11, align 4
  store ptr %52, ptr %6, align 8
  store i32 %53, ptr %7, align 4
  %54 = load i32, ptr %7, align 4
  store i32 %54, ptr %5, align 8
  %55 = getelementptr inbounds %struct.JSValue, ptr %5, i32 0, i32 1
  store i64 0, ptr %55, align 8
  %56 = load { i64, i64 }, ptr %5, align 8
  %57 = getelementptr inbounds { i64, i64 }, ptr %14, i32 0, i32 0
  %58 = extractvalue { i64, i64 } %56, 0
  store i64 %58, ptr %57, align 8
  %59 = getelementptr inbounds { i64, i64 }, ptr %14, i32 0, i32 1
  %60 = extractvalue { i64, i64 } %56, 1
  store i64 %60, ptr %59, align 8
  %61 = getelementptr inbounds { i64, i64 }, ptr %12, i32 0, i32 0
  %62 = load i64, ptr %61, align 8
  %63 = getelementptr inbounds { i64, i64 }, ptr %12, i32 0, i32 1
  %64 = load i64, ptr %63, align 8
  %65 = getelementptr inbounds { i64, i64 }, ptr %14, i32 0, i32 0
  %66 = load i64, ptr %65, align 8
  %67 = getelementptr inbounds { i64, i64 }, ptr %14, i32 0, i32 1
  %68 = load i64, ptr %67, align 8
  %69 = call i32 @JS_DefinePropertyValueUint32(ptr noundef %51, i64 %62, i64 %64, i32 noundef 1, i64 %66, i64 %68, i32 noundef 7)
  call void @llvm.memcpy.p0.p0.i64(ptr align 8 %8, ptr align 8 %12, i64 16, i1 false)
  br label %70

70:                                               ; preds = %40, %37, %23
  %71 = load { i64, i64 }, ptr %8, align 8
  ret { i64, i64 } %71
}

; Function Attrs: nounwind uwtable
define internal i32 @JS_IsException(i64 %0, i64 %1) #0 {
  %3 = alloca %struct.JSValue, align 8
  %4 = getelementptr inbounds { i64, i64 }, ptr %3, i32 0, i32 0
  store i64 %0, ptr %4, align 8
  %5 = getelementptr inbounds { i64, i64 }, ptr %3, i32 0, i32 1
  store i64 %1, ptr %5, align 8
  %6 = getelementptr inbounds %struct.JSValue, ptr %3, i32 0, i32 1
  %7 = load i64, ptr %6, align 8
  %8 = trunc i64 %7 to i32
  %9 = icmp eq i32 %8, 6
  %10 = xor i1 %9, true
  %11 = xor i1 %10, true
  %12 = zext i1 %11 to i32
  %13 = sext i32 %12 to i64
  %14 = trunc i64 %13 to i32
  ret i32 %14
}

; Function Attrs: nounwind uwtable
define internal ptr @JS_ToCString(ptr noundef %0, i64 %1, i64 %2) #0 {
  %4 = alloca %struct.JSValue, align 8
  %5 = alloca ptr, align 8
  %6 = getelementptr inbounds { i64, i64 }, ptr %4, i32 0, i32 0
  store i64 %1, ptr %6, align 8
  %7 = getelementptr inbounds { i64, i64 }, ptr %4, i32 0, i32 1
  store i64 %2, ptr %7, align 8
  store ptr %0, ptr %5, align 8
  %8 = load ptr, ptr %5, align 8
  %9 = getelementptr inbounds { i64, i64 }, ptr %4, i32 0, i32 0
  %10 = load i64, ptr %9, align 8
  %11 = getelementptr inbounds { i64, i64 }, ptr %4, i32 0, i32 1
  %12 = load i64, ptr %11, align 8
  %13 = call ptr @JS_ToCStringLen2(ptr noundef %8, ptr noundef null, i64 %10, i64 %12, i32 noundef 0)
  ret ptr %13
}

; Function Attrs: nounwind uwtable
define internal { i64, i64 } @js_os_readdir(ptr noundef %0, i64 %1, i64 %2, i32 noundef %3, ptr noundef %4) #0 {
  %6 = alloca %struct.JSValue, align 8
  %7 = alloca %struct.JSValue, align 8
  %8 = alloca ptr, align 8
  %9 = alloca i32, align 4
  %10 = alloca ptr, align 8
  %11 = alloca ptr, align 8
  %12 = alloca ptr, align 8
  %13 = alloca ptr, align 8
  %14 = alloca %struct.JSValue, align 8
  %15 = alloca i32, align 4
  %16 = alloca i32, align 4
  %17 = alloca %struct.JSValue, align 8
  %18 = alloca %struct.JSValue, align 8
  %19 = getelementptr inbounds { i64, i64 }, ptr %7, i32 0, i32 0
  store i64 %1, ptr %19, align 8
  %20 = getelementptr inbounds { i64, i64 }, ptr %7, i32 0, i32 1
  store i64 %2, ptr %20, align 8
  store ptr %0, ptr %8, align 8
  store i32 %3, ptr %9, align 4
  store ptr %4, ptr %10, align 8
  %21 = load ptr, ptr %8, align 8
  %22 = load ptr, ptr %10, align 8
  %23 = getelementptr %struct.JSValue, ptr %22, i64 0
  %24 = getelementptr inbounds { i64, i64 }, ptr %23, i32 0, i32 0
  %25 = load i64, ptr %24, align 8
  %26 = getelementptr inbounds { i64, i64 }, ptr %23, i32 0, i32 1
  %27 = load i64, ptr %26, align 8
  %28 = call ptr @JS_ToCString(ptr noundef %21, i64 %25, i64 %27)
  store ptr %28, ptr %11, align 8
  %29 = load ptr, ptr %11, align 8
  %30 = icmp ne ptr %29, null
  br i1 %30, label %34, label %31

31:                                               ; preds = %5
  %32 = getelementptr inbounds %struct.JSValue, ptr %6, i32 0, i32 0
  store i32 0, ptr %32, align 8
  %33 = getelementptr inbounds %struct.JSValue, ptr %6, i32 0, i32 1
  store i64 6, ptr %33, align 8
  br label %114

34:                                               ; preds = %5
  %35 = load ptr, ptr %8, align 8
  %36 = call { i64, i64 } @JS_NewArray(ptr noundef %35)
  %37 = getelementptr inbounds { i64, i64 }, ptr %17, i32 0, i32 0
  %38 = extractvalue { i64, i64 } %36, 0
  store i64 %38, ptr %37, align 8
  %39 = getelementptr inbounds { i64, i64 }, ptr %17, i32 0, i32 1
  %40 = extractvalue { i64, i64 } %36, 1
  store i64 %40, ptr %39, align 8
  call void @llvm.memcpy.p0.p0.i64(ptr align 8 %14, ptr align 8 %17, i64 16, i1 false)
  %41 = getelementptr inbounds { i64, i64 }, ptr %14, i32 0, i32 0
  %42 = load i64, ptr %41, align 8
  %43 = getelementptr inbounds { i64, i64 }, ptr %14, i32 0, i32 1
  %44 = load i64, ptr %43, align 8
  %45 = call i32 @JS_IsException(i64 %42, i64 %44)
  %46 = icmp ne i32 %45, 0
  br i1 %46, label %47, label %52

47:                                               ; preds = %34
  %48 = load ptr, ptr %8, align 8
  %49 = load ptr, ptr %11, align 8
  call void @JS_FreeCString(ptr noundef %48, ptr noundef %49)
  %50 = getelementptr inbounds %struct.JSValue, ptr %6, i32 0, i32 0
  store i32 0, ptr %50, align 8
  %51 = getelementptr inbounds %struct.JSValue, ptr %6, i32 0, i32 1
  store i64 6, ptr %51, align 8
  br label %114

52:                                               ; preds = %34
  %53 = load ptr, ptr %11, align 8
  %54 = call ptr @opendir(ptr noundef %53)
  store ptr %54, ptr %12, align 8
  %55 = load ptr, ptr %12, align 8
  %56 = icmp ne ptr %55, null
  br i1 %56, label %60, label %57

57:                                               ; preds = %52
  %58 = call ptr @__errno_location() #10
  %59 = load i32, ptr %58, align 4
  store i32 %59, ptr %15, align 4
  br label %61

60:                                               ; preds = %52
  store i32 0, ptr %15, align 4
  br label %61

61:                                               ; preds = %60, %57
  %62 = load ptr, ptr %8, align 8
  %63 = load ptr, ptr %11, align 8
  call void @JS_FreeCString(ptr noundef %62, ptr noundef %63)
  %64 = load ptr, ptr %12, align 8
  %65 = icmp ne ptr %64, null
  br i1 %65, label %67, label %66

66:                                               ; preds = %61
  br label %102

67:                                               ; preds = %61
  store i32 0, ptr %16, align 4
  br label %68

68:                                               ; preds = %77, %67
  %69 = call ptr @__errno_location() #10
  store i32 0, ptr %69, align 4
  %70 = load ptr, ptr %12, align 8
  %71 = call ptr @readdir(ptr noundef %70)
  store ptr %71, ptr %13, align 8
  %72 = load ptr, ptr %13, align 8
  %73 = icmp ne ptr %72, null
  br i1 %73, label %77, label %74

74:                                               ; preds = %68
  %75 = call ptr @__errno_location() #10
  %76 = load i32, ptr %75, align 4
  store i32 %76, ptr %15, align 4
  br label %99

77:                                               ; preds = %68
  %78 = load ptr, ptr %8, align 8
  %79 = load i32, ptr %16, align 4
  %80 = add i32 %79, 1
  store i32 %80, ptr %16, align 4
  %81 = load ptr, ptr %8, align 8
  %82 = load ptr, ptr %13, align 8
  %83 = getelementptr inbounds %struct.dirent, ptr %82, i32 0, i32 4
  %84 = getelementptr inbounds [256 x i8], ptr %83, i64 0, i64 0
  %85 = call { i64, i64 } @JS_NewString(ptr noundef %81, ptr noundef %84)
  %86 = getelementptr inbounds { i64, i64 }, ptr %18, i32 0, i32 0
  %87 = extractvalue { i64, i64 } %85, 0
  store i64 %87, ptr %86, align 8
  %88 = getelementptr inbounds { i64, i64 }, ptr %18, i32 0, i32 1
  %89 = extractvalue { i64, i64 } %85, 1
  store i64 %89, ptr %88, align 8
  %90 = getelementptr inbounds { i64, i64 }, ptr %14, i32 0, i32 0
  %91 = load i64, ptr %90, align 8
  %92 = getelementptr inbounds { i64, i64 }, ptr %14, i32 0, i32 1
  %93 = load i64, ptr %92, align 8
  %94 = getelementptr inbounds { i64, i64 }, ptr %18, i32 0, i32 0
  %95 = load i64, ptr %94, align 8
  %96 = getelementptr inbounds { i64, i64 }, ptr %18, i32 0, i32 1
  %97 = load i64, ptr %96, align 8
  %98 = call i32 @JS_DefinePropertyValueUint32(ptr noundef %78, i64 %91, i64 %93, i32 noundef %79, i64 %95, i64 %97, i32 noundef 7)
  br label %68

99:                                               ; preds = %74
  %100 = load ptr, ptr %12, align 8
  %101 = call i32 @closedir(ptr noundef %100)
  br label %102

102:                                              ; preds = %99, %66
  %103 = load ptr, ptr %8, align 8
  %104 = load i32, ptr %15, align 4
  %105 = getelementptr inbounds { i64, i64 }, ptr %14, i32 0, i32 0
  %106 = load i64, ptr %105, align 8
  %107 = getelementptr inbounds { i64, i64 }, ptr %14, i32 0, i32 1
  %108 = load i64, ptr %107, align 8
  %109 = call { i64, i64 } @make_obj_error(ptr noundef %103, i64 %106, i64 %108, i32 noundef %104)
  %110 = getelementptr inbounds { i64, i64 }, ptr %6, i32 0, i32 0
  %111 = extractvalue { i64, i64 } %109, 0
  store i64 %111, ptr %110, align 8
  %112 = getelementptr inbounds { i64, i64 }, ptr %6, i32 0, i32 1
  %113 = extractvalue { i64, i64 } %109, 1
  store i64 %113, ptr %112, align 8
  br label %114

114:                                              ; preds = %102, %47, %31
  %115 = load { i64, i64 }, ptr %6, align 8
  ret { i64, i64 } %115
}