; Function Attrs: nounwind uwtable
define internal { i64, i64 } @js_os_readdir(ptr noundef %0, i64 %1, i64 %2, i32 %3, ptr nocapture noundef readonly %4) #0 {
  %6 = load i64, ptr %4, align 8
  %7 = getelementptr inbounds i8, ptr %4, i64 8
  %8 = load i64, ptr %7, align 8
  %9 = tail call ptr @JS_ToCStringLen2(ptr noundef %0, ptr noundef null, i64 %6, i64 %8, i32 noundef 0) #29
  %.not = icmp eq ptr %9, null
  br i1 %.not, label %make_obj_error.exit, label %10

10:                                               ; preds = %5
  %11 = tail call { i64, i64 } @JS_NewArray(ptr noundef %0) #29
  %12 = extractvalue { i64, i64 } %11, 0
  %13 = extractvalue { i64, i64 } %11, 1
  %14 = and i64 %13, 4294967295
  %.not39 = icmp eq i64 %14, 6
  br i1 %.not39, label %15, label %16

15:                                               ; preds = %10
  tail call void @JS_FreeCString(ptr noundef %0, ptr noundef nonnull %9) #29
  br label %make_obj_error.exit

16:                                               ; preds = %10
  %17 = tail call ptr @opendir(ptr noundef nonnull %9)
  %.not36 = icmp eq ptr %17, null
  br i1 %.not36, label %.thread, label %20

.thread:                                          ; preds = %16
  %18 = tail call ptr @__errno_location() #28
  %19 = load i32, ptr %18, align 4
  tail call void @JS_FreeCString(ptr noundef %0, ptr noundef nonnull %9) #29
  br label %33

20:                                               ; preds = %16
  tail call void @JS_FreeCString(ptr noundef %0, ptr noundef nonnull %9) #29
  %21 = tail call ptr @__errno_location() #28
  store i32 0, ptr %21, align 4
  %22 = tail call ptr @readdir(ptr noundef nonnull %17) #29
  %.not3740 = icmp eq ptr %22, null
  br i1 %.not3740, label %._crit_edge, label %.lr.ph

._crit_edge:                                      ; preds = %.lr.ph, %20
  %23 = load i32, ptr %21, align 4
  %24 = tail call i32 @closedir(ptr noundef nonnull %17)
  br label %33

.lr.ph:                                           ; preds = %20, %.lr.ph
  %25 = phi ptr [ %32, %.lr.ph ], [ %22, %20 ]
  %.03141 = phi i32 [ %26, %.lr.ph ], [ 0, %20 ]
  %26 = add i32 %.03141, 1
  %27 = getelementptr inbounds i8, ptr %25, i64 19
  %28 = tail call { i64, i64 } @JS_NewString(ptr noundef %0, ptr noundef nonnull %27) #29
  %29 = extractvalue { i64, i64 } %28, 0
  %30 = extractvalue { i64, i64 } %28, 1
  %31 = tail call i32 @JS_DefinePropertyValueUint32(ptr noundef %0, i64 %12, i64 %13, i32 noundef %.03141, i64 %29, i64 %30, i32 noundef 7) #29
  store i32 0, ptr %21, align 4
  %32 = tail call ptr @readdir(ptr noundef nonnull %17) #29
  %.not37 = icmp eq ptr %32, null
  br i1 %.not37, label %._crit_edge, label %.lr.ph

33:                                               ; preds = %._crit_edge, %.thread
  %.1 = phi i32 [ %23, %._crit_edge ], [ %19, %.thread ]
  %34 = tail call { i64, i64 } @JS_NewArray(ptr noundef %0) #29
  %35 = extractvalue { i64, i64 } %34, 1
  %36 = and i64 %35, 4294967295
  %.not27.i = icmp eq i64 %36, 6
  br i1 %.not27.i, label %make_obj_error.exit, label %37

37:                                               ; preds = %33
  %38 = extractvalue { i64, i64 } %34, 0
  %39 = tail call i32 @JS_DefinePropertyValueUint32(ptr noundef %0, i64 %38, i64 %35, i32 noundef 0, i64 %12, i64 %13, i32 noundef 7) #29
  %.sroa.024.0.insert.ext.i = zext i32 %.1 to i64
  %40 = tail call i32 @JS_DefinePropertyValueUint32(ptr noundef %0, i64 %38, i64 %35, i32 noundef 1, i64 %.sroa.024.0.insert.ext.i, i64 0, i32 noundef 7) #29
  %.sroa.416.0.extract.shift.i = and i64 %38, -4294967296
  %41 = and i64 %38, 4294967295
  br label %make_obj_error.exit

make_obj_error.exit:                              ; preds = %37, %33, %5, %15
  %.sroa.027.0 = phi i64 [ 0, %15 ], [ 0, %5 ], [ %41, %37 ], [ 0, %33 ]
  %.sroa.428.sroa.0.0 = phi i64 [ 0, %15 ], [ 0, %5 ], [ %.sroa.416.0.extract.shift.i, %37 ], [ 0, %33 ]
  %.sroa.428.sroa.2.0 = phi i64 [ 6, %15 ], [ 6, %5 ], [ %35, %37 ], [ 6, %33 ]
  %.sroa.027.0.insert.insert = or disjoint i64 %.sroa.428.sroa.0.0, %.sroa.027.0
  %.fca.0.insert = insertvalue { i64, i64 } poison, i64 %.sroa.027.0.insert.insert, 0
  %.fca.1.insert = insertvalue { i64, i64 } %.fca.0.insert, i64 %.sroa.428.sroa.2.0, 1
  ret { i64, i64 } %.fca.1.insert
}